target datalayout = "e-m:e-p270:32:32-p271:32:32-p272:64:64-i64:64-i128:128-f80:128-n8:16:32:64-S128"
target triple = "x86_64-pc-linux-gnu"

; Function Attrs: mustprogress nounwind uwtable
define ptr @ucnv_io_stripASCIIForCompare_77(ptr noundef %0, ptr noundef %1) #0 {
  %3 = alloca ptr, align 8
  %4 = alloca ptr, align 8
  %5 = alloca ptr, align 8
  %6 = alloca i8, align 1
  %7 = alloca i8, align 1
  %8 = alloca i8, align 1
  %9 = alloca i8, align 1
  store ptr %0, ptr %3, align 8, !tbaa !3
  store ptr %1, ptr %4, align 8, !tbaa !3
  call void @llvm.lifetime.start.p0(i64 8, ptr %5) #12
  %10 = load ptr, ptr %3, align 8, !tbaa !3
  store ptr %10, ptr %5, align 8, !tbaa !3
  call void @llvm.lifetime.start.p0(i64 1, ptr %6) #12
  call void @llvm.lifetime.start.p0(i64 1, ptr %7) #12
  call void @llvm.lifetime.start.p0(i64 1, ptr %8) #12
  call void @llvm.lifetime.start.p0(i64 1, ptr %9) #12
  store i8 0, ptr %9, align 1, !tbaa !8
  br label %11

11:                                               ; preds = %62, %56, %31, %2
  %12 = load ptr, ptr %4, align 8, !tbaa !3
  %13 = getelementptr inbounds nuw i8, ptr %12, i32 1
  store ptr %13, ptr %4, align 8, !tbaa !3
  %14 = load i8, ptr %12, align 1, !tbaa !8
  store i8 %14, ptr %8, align 1, !tbaa !8
  %15 = sext i8 %14 to i32
  %16 = icmp ne i32 %15, 0
  br i1 %16, label %17, label %66

17:                                               ; preds = %11
  %18 = load i8, ptr %8, align 1, !tbaa !8
  %19 = sext i8 %18 to i32
  %20 = icmp sge i32 %19, 0
  br i1 %20, label %21, label %26

21:                                               ; preds = %17
  %22 = load i8, ptr %8, align 1, !tbaa !8
  %23 = zext i8 %22 to i64
  %24 = getelementptr inbounds nuw [128 x i8], ptr @_ZL10asciiTypes, i64 0, i64 %23
  %25 = load i8, ptr %24, align 1, !tbaa !8
  br label %27

26:                                               ; preds = %17
  br label %27

27:                                               ; preds = %26, %21
  %28 = phi i8 [ %25, %21 ], [ 0, %26 ]
  store i8 %28, ptr %6, align 1, !tbaa !8
  %29 = load i8, ptr %6, align 1, !tbaa !8
  %30 = zext i8 %29 to i32
  switch i32 %30, label %60 [
    i32 0, label %31
    i32 1, label %32
    i32 2, label %59
  ]

31:                                               ; preds = %27
  store i8 0, ptr %9, align 1, !tbaa !8
  br label %11, !llvm.loop !9

32:                                               ; preds = %27
  %33 = load i8, ptr %9, align 1, !tbaa !8
  %34 = icmp ne i8 %33, 0
  br i1 %34, label %58, label %35

35:                                               ; preds = %32
  %36 = load ptr, ptr %4, align 8, !tbaa !3
  %37 = load i8, ptr %36, align 1, !tbaa !8
  %38 = sext i8 %37 to i32
  %39 = icmp sge i32 %38, 0
  br i1 %39, label %40, label %46

40:                                               ; preds = %35
  %41 = load ptr, ptr %4, align 8, !tbaa !3
  %42 = load i8, ptr %41, align 1, !tbaa !8
  %43 = zext i8 %42 to i64
  %44 = getelementptr inbounds nuw [128 x i8], ptr @_ZL10asciiTypes, i64 0, i64 %43
  %45 = load i8, ptr %44, align 1, !tbaa !8
  br label %47

46:                                               ; preds = %35
  br label %47

47:                                               ; preds = %46, %40
  %48 = phi i8 [ %45, %40 ], [ 0, %46 ]
  store i8 %48, ptr %7, align 1, !tbaa !8
  %49 = load i8, ptr %7, align 1, !tbaa !8
  %50 = zext i8 %49 to i32
  %51 = icmp eq i32 %50, 1
  br i1 %51, label %56, label %52

52:                                               ; preds = %47
  %53 = load i8, ptr %7, align 1, !tbaa !8
  %54 = zext i8 %53 to i32
  %55 = icmp eq i32 %54, 2
  br i1 %55, label %56, label %57

56:                                               ; preds = %52, %47
  br label %11, !llvm.loop !9

57:                                               ; preds = %52
  br label %58

58:                                               ; preds = %57, %32
  br label %62

59:                                               ; preds = %27
  store i8 1, ptr %9, align 1, !tbaa !8
  br label %62

60:                                               ; preds = %27
  %61 = load i8, ptr %6, align 1, !tbaa !8
  store i8 %61, ptr %8, align 1, !tbaa !8
  store i8 0, ptr %9, align 1, !tbaa !8
  br label %62

62:                                               ; preds = %60, %59, %58
  %63 = load i8, ptr %8, align 1, !tbaa !8
  %64 = load ptr, ptr %5, align 8, !tbaa !3
  %65 = getelementptr inbounds nuw i8, ptr %64, i32 1
  store ptr %65, ptr %5, align 8, !tbaa !3
  store i8 %63, ptr %64, align 1, !tbaa !8
  br label %11, !llvm.loop !9

66:                                               ; preds = %11
  %67 = load ptr, ptr %5, align 8, !tbaa !3
  store i8 0, ptr %67, align 1, !tbaa !8
  %68 = load ptr, ptr %3, align 8, !tbaa !3
  call void @llvm.lifetime.end.p0(i64 1, ptr %9) #12
  call void @llvm.lifetime.end.p0(i64 1, ptr %8) #12
  call void @llvm.lifetime.end.p0(i64 1, ptr %7) #12
  call void @llvm.lifetime.end.p0(i64 1, ptr %6) #12
  call void @llvm.lifetime.end.p0(i64 8, ptr %5) #12
  ret ptr %68
}