; Function Attrs: mustprogress nofree norecurse nosync nounwind memory(argmem: readwrite) uwtable
define noundef ptr @ucnv_io_stripASCIIForCompare_77(ptr noundef returned writeonly %0, ptr noundef readonly captures(none) %1) #0 {
  %3 = load i8, ptr %1, align 1, !tbaa !3
  %.not2831 = icmp eq i8 %3, 0
  br i1 %.not2831, label %.outer._crit_edge, label %.lr.ph

.lr.ph:                                           ; preds = %2, %.critedge
  %4 = phi i8 [ %26, %.critedge ], [ %3, %2 ]
  %.pn = phi ptr [ %8, %.critedge ], [ %1, %2 ]
  %.0.ph34 = phi i8 [ %.1, %.critedge ], [ 0, %2 ]
  %.018.ph32 = phi ptr [ %25, %.critedge ], [ %0, %2 ]
  %5 = icmp eq i8 %.0.ph34, 0
  br label %6

6:                                                ; preds = %.lr.ph, %.backedge
  %7 = phi i8 [ %4, %.lr.ph ], [ %24, %.backedge ]
  %.pn.pn = phi ptr [ %.pn, %.lr.ph ], [ %8, %.backedge ]
  %.029 = phi i1 [ %5, %.lr.ph ], [ true, %.backedge ]
  %8 = getelementptr inbounds nuw i8, ptr %.pn.pn, i64 1
  %9 = icmp sgt i8 %7, -1
  br i1 %9, label %10, label %..backedge_crit_edge

10:                                               ; preds = %6
  %11 = zext nneg i8 %7 to i64
  %12 = getelementptr inbounds nuw [128 x i8], ptr @_ZL10asciiTypes, i64 0, i64 %11
  %13 = load i8, ptr %12, align 1, !tbaa !3
  switch i8 %13, label %.critedge [
    i8 0, label %..backedge_crit_edge
    i8 1, label %14
    i8 2, label %.critedge.loopexit
  ]

..backedge_crit_edge:                             ; preds = %6, %10
  %.pre = load i8, ptr %8, align 1, !tbaa !3
  br label %.backedge

14:                                               ; preds = %10
  br i1 %.029, label %15, label %.critedge

15:                                               ; preds = %14
  %16 = load i8, ptr %8, align 1, !tbaa !3
  %17 = icmp sgt i8 %16, -1
  br i1 %17, label %18, label %.critedge

18:                                               ; preds = %15
  %19 = zext nneg i8 %16 to i64
  %20 = getelementptr inbounds nuw [128 x i8], ptr @_ZL10asciiTypes, i64 0, i64 %19
  %21 = load i8, ptr %20, align 1, !tbaa !3
  %22 = add i8 %21, -1
  %23 = icmp ult i8 %22, 2
  br i1 %23, label %.backedge, label %.critedge

.backedge:                                        ; preds = %..backedge_crit_edge, %18
  %24 = phi i8 [ %.pre, %..backedge_crit_edge ], [ %16, %18 ]
  %.not = icmp eq i8 %24, 0
  br i1 %.not, label %.outer._crit_edge, label %6, !llvm.loop !6

.critedge.loopexit:                               ; preds = %10
  br label %.critedge

.critedge:                                        ; preds = %15, %14, %18, %10, %.critedge.loopexit
  %.016 = phi i8 [ %13, %10 ], [ %7, %18 ], [ %7, %14 ], [ %7, %15 ], [ %7, %.critedge.loopexit ]
  %.1 = phi i8 [ 0, %10 ], [ 0, %18 ], [ 1, %14 ], [ 0, %15 ], [ 1, %.critedge.loopexit ]
  %25 = getelementptr inbounds nuw i8, ptr %.018.ph32, i64 1
  store i8 %.016, ptr %.018.ph32, align 1, !tbaa !3
  %26 = load i8, ptr %8, align 1, !tbaa !3
  %.not28 = icmp eq i8 %26, 0
  br i1 %.not28, label %.outer._crit_edge, label %.lr.ph, !llvm.loop !6

.outer._crit_edge:                                ; preds = %.critedge, %.backedge, %2
  %.018.ph.lcssa = phi ptr [ %0, %2 ], [ %.018.ph32, %.backedge ], [ %25, %.critedge ]
  store i8 0, ptr %.018.ph.lcssa, align 1, !tbaa !3
  ret ptr %0
}